; Function Attrs: mustprogress uwtable
define noundef double @_ZNK8QuantLib13Fdm1DimSolver13interpolateAtEd(ptr noundef nonnull align 8 dereferenceable(264) %this, double noundef %x) local_unnamed_addr #8 align 2 {
entry:
  %vtable = load ptr, ptr %this, align 8, !tbaa !33
  %vfn = getelementptr inbounds i8, ptr %vtable, i64 24
  %0 = load ptr, ptr %vfn, align 8
  tail call void %0(ptr noundef nonnull align 8 dereferenceable(12) %this)
  %interpolation_ = getelementptr inbounds nuw i8, ptr %this, i64 248
  %1 = load ptr, ptr %interpolation_, align 8, !tbaa !137
  %cmp.not.i = icmp eq ptr %1, null
  br i1 %cmp.not.i, label %cond.false.i, label %_ZNK5boost10shared_ptrIN8QuantLib18CubicInterpolationEEdeEv.exit, !prof !51

cond.false.i:                                     ; preds = %entry
  tail call void @_ZN5boost16assertion_failedEPKcS1_S1_l(ptr noundef nonnull @.str.12, ptr noundef nonnull @__PRETTY_FUNCTION__._ZNK5boost10shared_ptrIN8QuantLib18CubicInterpolationEEdeEv, ptr noundef nonnull @.str.13, i64 noundef 778)
  %.pre.i = load ptr, ptr %interpolation_, align 8, !tbaa !137
  br label %_ZNK5boost10shared_ptrIN8QuantLib18CubicInterpolationEEdeEv.exit

_ZNK5boost10shared_ptrIN8QuantLib18CubicInterpolationEEdeEv.exit: ; preds = %entry, %cond.false.i
  %2 = phi ptr [ %1, %entry ], [ %.pre.i, %cond.false.i ]
  tail call void @_ZNK8QuantLib13Interpolation10checkRangeEdb(ptr noundef nonnull align 8 dereferenceable(32) %2, double noundef %x, i1 noundef zeroext false)
  %impl_.i = getelementptr inbounds nuw i8, ptr %2, i64 16
  %3 = load ptr, ptr %impl_.i, align 8, !tbaa !138
  %cmp.not.i.i = icmp eq ptr %3, null
  br i1 %cmp.not.i.i, label %cond.false.i.i, label %_ZNK8QuantLib13InterpolationclEdb.exit, !prof !51

cond.false.i.i:                                   ; preds = %_ZNK5boost10shared_ptrIN8QuantLib18CubicInterpolationEEdeEv.exit
  tail call void @_ZN5boost16assertion_failedEPKcS1_S1_l(ptr noundef nonnull @.str.12, ptr noundef nonnull @__PRETTY_FUNCTION__._ZNK5boost10shared_ptrIN8QuantLib13Interpolation4ImplEEptEv, ptr noundef nonnull @.str.13, i64 noundef 784)
  %.pre.i.i = load ptr, ptr %impl_.i, align 8, !tbaa !138
  br label %_ZNK8QuantLib13InterpolationclEdb.exit

_ZNK8QuantLib13InterpolationclEdb.exit:           ; preds = %_ZNK5boost10shared_ptrIN8QuantLib18CubicInterpolationEEdeEv.exit, %cond.false.i.i
  %4 = phi ptr [ %3, %_ZNK5boost10shared_ptrIN8QuantLib18CubicInterpolationEEdeEv.exit ], [ %.pre.i.i, %cond.false.i.i ]
  %vtable.i = load ptr, ptr %4, align 8, !tbaa !33
  %vfn.i = getelementptr inbounds i8, ptr %vtable.i, i64 64
  %5 = load ptr, ptr %vfn.i, align 8
  %call2.i = tail call noundef double %5(ptr noundef nonnull align 8 dereferenceable(8) %4, double noundef %x)
  ret double %call2.i
}